target datalayout = "e-m:e-p270:32:32-p271:32:32-p272:64:64-i64:64-i128:128-f80:128-n8:16:32:64-S128"
target triple = "x86_64-pc-linux-gnu"

%struct.SDL_GUID = type { [16 x i8] }
%struct.GamepadMapping_t = type { %struct.SDL_GUID, ptr, ptr, i32, ptr }
%struct.SDL_SteamVirtualGamepadInfo = type { i64, ptr, i16, i16, i32 }

@map_StringForGamepadType = internal global [12 x ptr] [ptr @.str.24, ptr @.str.25, ptr @.str.26, ptr @.str.27, ptr @.str.28, ptr @.str.29, ptr @.str.30, ptr @.str.31, ptr @.str.32, ptr @.str.33, ptr @.str.34, ptr @.str.35], align 16
@.str.9 = private unnamed_addr constant [6 x i8] c"type:\00", align 1

; Function Attrs: nounwind uwtable
define hidden i32 @SDL_GetRealGamepadTypeForID_REAL(i32 noundef %0) #0 {
  %2 = alloca i32, align 4
  %3 = alloca i32, align 4
  %4 = alloca ptr, align 8
  %5 = alloca %struct.SDL_GUID, align 1
  store i32 %0, ptr %2, align 4
  call void @llvm.lifetime.start.p0(i64 4, ptr %3) #8
  store i32 0, ptr %3, align 4
  call void @llvm.lifetime.start.p0(i64 8, ptr %4) #8
  call void @SDL_LockJoysticks_REAL()
  %6 = load i32, ptr %2, align 4
  %7 = call ptr @SDL_GetJoystickVirtualGamepadInfoForID(i32 noundef %6)
  store ptr %7, ptr %4, align 8
  %8 = load ptr, ptr %4, align 8
  %9 = icmp ne ptr %8, null
  br i1 %9, label %10, label %14

10:                                               ; preds = %1
  %11 = load ptr, ptr %4, align 8
  %12 = getelementptr inbounds nuw %struct.SDL_SteamVirtualGamepadInfo, ptr %11, i32 0, i32 4
  %13 = load i32, ptr %12, align 4
  store i32 %13, ptr %3, align 4
  br label %29

14:                                               ; preds = %1
  %15 = load i32, ptr %2, align 4
  %16 = call { i64, i64 } @SDL_GetJoystickGUIDForID_REAL(i32 noundef %15)
  %17 = getelementptr inbounds nuw %struct.SDL_GUID, ptr %5, i32 0, i32 0
  %18 = getelementptr inbounds nuw { i64, i64 }, ptr %17, i32 0, i32 0
  %19 = extractvalue { i64, i64 } %16, 0
  store i64 %19, ptr %18, align 1
  %20 = getelementptr inbounds nuw { i64, i64 }, ptr %17, i32 0, i32 1
  %21 = extractvalue { i64, i64 } %16, 1
  store i64 %21, ptr %20, align 1
  %22 = load i32, ptr %2, align 4
  %23 = call ptr @SDL_GetJoystickNameForID_REAL(i32 noundef %22)
  %24 = getelementptr inbounds nuw { i64, i64 }, ptr %5, i32 0, i32 0
  %25 = load i64, ptr %24, align 1
  %26 = getelementptr inbounds nuw { i64, i64 }, ptr %5, i32 0, i32 1
  %27 = load i64, ptr %26, align 1
  %28 = call i32 @SDL_GetGamepadTypeFromGUID(i64 %25, i64 %27, ptr noundef %23)
  store i32 %28, ptr %3, align 4
  br label %29

29:                                               ; preds = %14, %10
  call void @SDL_UnlockJoysticks_REAL()
  %30 = load i32, ptr %3, align 4
  call void @llvm.lifetime.end.p0(i64 8, ptr %4) #8
  call void @llvm.lifetime.end.p0(i64 4, ptr %3) #8
  ret i32 %30
}

; Function Attrs: nounwind uwtable
define hidden i32 @SDL_GetGamepadTypeFromString_REAL(ptr noundef %0) #0 {
  %2 = alloca i32, align 4
  %3 = alloca ptr, align 8
  %4 = alloca i32, align 4
  %5 = alloca i32, align 4
  store ptr %0, ptr %3, align 8
  call void @llvm.lifetime.start.p0(i64 4, ptr %4) #8
  %6 = load ptr, ptr %3, align 8
  %7 = icmp ne ptr %6, null
  br i1 %7, label %8, label %14

8:                                                ; preds = %1
  %9 = load ptr, ptr %3, align 8
  %10 = getelementptr inbounds i8, ptr %9, i64 0
  %11 = load i8, ptr %10, align 1
  %12 = sext i8 %11 to i32
  %13 = icmp eq i32 %12, 0
  br i1 %13, label %14, label %15

14:                                               ; preds = %8, %1
  store i32 0, ptr %2, align 4
  store i32 1, ptr %5, align 4
  br label %48

15:                                               ; preds = %8
  %16 = load ptr, ptr %3, align 8
  %17 = load i8, ptr %16, align 1
  %18 = sext i8 %17 to i32
  %19 = icmp eq i32 %18, 43
  br i1 %19, label %25, label %20

20:                                               ; preds = %15
  %21 = load ptr, ptr %3, align 8
  %22 = load i8, ptr %21, align 1
  %23 = sext i8 %22 to i32
  %24 = icmp eq i32 %23, 45
  br i1 %24, label %25, label %28

25:                                               ; preds = %20, %15
  %26 = load ptr, ptr %3, align 8
  %27 = getelementptr inbounds nuw i8, ptr %26, i32 1
  store ptr %27, ptr %3, align 8
  br label %28

28:                                               ; preds = %25, %20
  store i32 0, ptr %4, align 4
  br label %29

29:                                               ; preds = %44, %28
  %30 = load i32, ptr %4, align 4
  %31 = sext i32 %30 to i64
  %32 = icmp ult i64 %31, 12
  br i1 %32, label %33, label %47

33:                                               ; preds = %29
  %34 = load ptr, ptr %3, align 8
  %35 = load i32, ptr %4, align 4
  %36 = sext i32 %35 to i64
  %37 = getelementptr inbounds [12 x ptr], ptr @map_StringForGamepadType, i64 0, i64 %36
  %38 = load ptr, ptr %37, align 8
  %39 = call i32 @SDL_strcasecmp_REAL(ptr noundef %34, ptr noundef %38)
  %40 = icmp eq i32 %39, 0
  br i1 %40, label %41, label %43

41:                                               ; preds = %33
  %42 = load i32, ptr %4, align 4
  store i32 %42, ptr %2, align 4
  store i32 1, ptr %5, align 4
  br label %48

43:                                               ; preds = %33
  br label %44

44:                                               ; preds = %43
  %45 = load i32, ptr %4, align 4
  %46 = add nsw i32 %45, 1
  store i32 %46, ptr %4, align 4
  br label %29, !llvm.loop !12

47:                                               ; preds = %29
  store i32 0, ptr %2, align 4
  store i32 1, ptr %5, align 4
  br label %48

48:                                               ; preds = %47, %41, %14
  call void @llvm.lifetime.end.p0(i64 4, ptr %4) #8
  %49 = load i32, ptr %2, align 4
  ret i32 %49
}

; Function Attrs: nounwind uwtable
define hidden i32 @SDL_GetGamepadTypeForID_REAL(i32 noundef %0) #0 {
  %2 = alloca i32, align 4
  %3 = alloca i32, align 4
  %4 = alloca i32, align 4
  %5 = alloca ptr, align 8
  %6 = alloca ptr, align 8
  %7 = alloca ptr, align 8
  %8 = alloca i32, align 4
  store i32 %0, ptr %3, align 4
  call void @llvm.lifetime.start.p0(i64 4, ptr %4) #8
  store i32 0, ptr %4, align 4
  call void @SDL_LockJoysticks_REAL()
  call void @llvm.lifetime.start.p0(i64 8, ptr %5) #8
  %9 = load i32, ptr %3, align 4
  %10 = call ptr @SDL_PrivateGetGamepadMapping(i32 noundef %9, i1 noundef zeroext true)
  store ptr %10, ptr %5, align 8
  %11 = load ptr, ptr %5, align 8
  %12 = icmp ne ptr %11, null
  br i1 %12, label %13, label %35

13:                                               ; preds = %1
  call void @llvm.lifetime.start.p0(i64 8, ptr %6) #8
  call void @llvm.lifetime.start.p0(i64 8, ptr %7) #8
  %14 = load ptr, ptr %5, align 8
  %15 = getelementptr inbounds nuw %struct.GamepadMapping_t, ptr %14, i32 0, i32 2
  %16 = load ptr, ptr %15, align 8
  %17 = call ptr @SDL_strstr_REAL(ptr noundef %16, ptr noundef @.str.9)
  store ptr %17, ptr %6, align 8
  %18 = load ptr, ptr %6, align 8
  %19 = icmp ne ptr %18, null
  br i1 %19, label %20, label %34

20:                                               ; preds = %13
  %21 = call i64 @SDL_strlen_REAL(ptr noundef @.str.9)
  %22 = load ptr, ptr %6, align 8
  %23 = getelementptr inbounds nuw i8, ptr %22, i64 %21
  store ptr %23, ptr %6, align 8
  %24 = load ptr, ptr %6, align 8
  %25 = call ptr @SDL_strchr_REAL(ptr noundef %24, i32 noundef 44)
  store ptr %25, ptr %7, align 8
  %26 = load ptr, ptr %7, align 8
  %27 = icmp ne ptr %26, null
  br i1 %27, label %28, label %33

28:                                               ; preds = %20
  %29 = load ptr, ptr %7, align 8
  store i8 0, ptr %29, align 1
  %30 = load ptr, ptr %6, align 8
  %31 = call i32 @SDL_GetGamepadTypeFromString_REAL(ptr noundef %30)
  store i32 %31, ptr %4, align 4
  %32 = load ptr, ptr %7, align 8
  store i8 44, ptr %32, align 1
  br label %33

33:                                               ; preds = %28, %20
  br label %34

34:                                               ; preds = %33, %13
  call void @llvm.lifetime.end.p0(i64 8, ptr %7) #8
  call void @llvm.lifetime.end.p0(i64 8, ptr %6) #8
  br label %35

35:                                               ; preds = %34, %1
  call void @llvm.lifetime.end.p0(i64 8, ptr %5) #8
  call void @SDL_UnlockJoysticks_REAL()
  %36 = load i32, ptr %4, align 4
  %37 = icmp ne i32 %36, 0
  br i1 %37, label %38, label %40

38:                                               ; preds = %35
  %39 = load i32, ptr %4, align 4
  store i32 %39, ptr %2, align 4
  store i32 1, ptr %8, align 4
  br label %43

40:                                               ; preds = %35
  %41 = load i32, ptr %3, align 4
  %42 = call i32 @SDL_GetRealGamepadTypeForID_REAL(i32 noundef %41)
  store i32 %42, ptr %2, align 4
  store i32 1, ptr %8, align 4
  br label %43

43:                                               ; preds = %40, %38
  call void @llvm.lifetime.end.p0(i64 4, ptr %4) #8
  %44 = load i32, ptr %2, align 4
  ret i32 %44
}