; Function Attrs: nounwind uwtable
define hidden i32 @SDL_GetGamepadTypeForID_REAL(i32 noundef %0) local_unnamed_addr #0 {
  tail call void @SDL_LockJoysticks_REAL() #10
  %2 = tail call fastcc ptr @SDL_PrivateGetGamepadMapping(i32 noundef %0, i1 noundef zeroext true)
  %.not = icmp eq ptr %2, null
  br i1 %.not, label %.sink.split, label %3

3:                                                ; preds = %1
  %4 = getelementptr inbounds nuw i8, ptr %2, i64 24
  %5 = load ptr, ptr %4, align 8
  %6 = tail call ptr @SDL_strstr_REAL(ptr noundef %5, ptr noundef nonnull @.str.9) #10
  %.not17 = icmp eq ptr %6, null
  br i1 %.not17, label %.sink.split, label %7

7:                                                ; preds = %3
  %8 = tail call i64 @SDL_strlen_REAL(ptr noundef nonnull @.str.9) #10
  %9 = getelementptr inbounds nuw i8, ptr %6, i64 %8
  %10 = tail call ptr @SDL_strchr_REAL(ptr noundef nonnull %9, i32 noundef 44) #10
  %.not18 = icmp eq ptr %10, null
  br i1 %.not18, label %.sink.split, label %11

11:                                               ; preds = %7
  store i8 0, ptr %10, align 1
  %12 = load i8, ptr %9, align 1
  switch i8 %12, label %15 [
    i8 0, label %.thread24
    i8 43, label %13
    i8 45, label %13
  ]

13:                                               ; preds = %11, %11
  %14 = getelementptr inbounds nuw i8, ptr %9, i64 1
  br label %15

15:                                               ; preds = %13, %11
  %.010.i = phi ptr [ %14, %13 ], [ %9, %11 ]
  br label %16

16:                                               ; preds = %21, %15
  %indvars.iv.i = phi i64 [ 0, %15 ], [ %indvars.iv.next.i, %21 ]
  %17 = getelementptr inbounds nuw [12 x ptr], ptr @map_StringForGamepadType, i64 0, i64 %indvars.iv.i
  %18 = load ptr, ptr %17, align 8
  %19 = tail call i32 @SDL_strcasecmp_REAL(ptr noundef nonnull %.010.i, ptr noundef %18) #10
  %20 = icmp eq i32 %19, 0
  br i1 %20, label %22, label %21

21:                                               ; preds = %16
  %indvars.iv.next.i = add nuw nsw i64 %indvars.iv.i, 1
  %exitcond.not.i = icmp eq i64 %indvars.iv.next.i, 12
  br i1 %exitcond.not.i, label %.thread24, label %16, !llvm.loop !10

.thread24:                                        ; preds = %21, %11
  store i8 44, ptr %10, align 1
  br label %.sink.split

22:                                               ; preds = %16
  %23 = trunc nuw nsw i64 %indvars.iv.i to i32
  store i8 44, ptr %10, align 1
  tail call void @SDL_UnlockJoysticks_REAL() #10
  %.not19 = icmp eq i64 %indvars.iv.i, 0
  br i1 %.not19, label %24, label %35

.sink.split:                                      ; preds = %3, %7, %1, %.thread24
  tail call void @SDL_UnlockJoysticks_REAL() #10
  br label %24

24:                                               ; preds = %.sink.split, %22
  tail call void @SDL_LockJoysticks_REAL() #10
  %25 = tail call ptr @SDL_GetJoystickVirtualGamepadInfoForID(i32 noundef %0) #10
  %.not.i20 = icmp eq ptr %25, null
  br i1 %.not.i20, label %29, label %26

26:                                               ; preds = %24
  %27 = getelementptr inbounds nuw i8, ptr %25, i64 20
  %28 = load i32, ptr %27, align 4
  br label %SDL_GetRealGamepadTypeForID_REAL.exit

29:                                               ; preds = %24
  %30 = tail call { i64, i64 } @SDL_GetJoystickGUIDForID_REAL(i32 noundef %0) #10
  %31 = extractvalue { i64, i64 } %30, 0
  %32 = extractvalue { i64, i64 } %30, 1
  %33 = tail call ptr @SDL_GetJoystickNameForID_REAL(i32 noundef %0) #10
  %34 = tail call i32 @SDL_GetGamepadTypeFromGUID(i64 %31, i64 %32, ptr noundef %33) #10
  br label %SDL_GetRealGamepadTypeForID_REAL.exit

SDL_GetRealGamepadTypeForID_REAL.exit:            ; preds = %26, %29
  %.0.i = phi i32 [ %28, %26 ], [ %34, %29 ]
  tail call void @SDL_UnlockJoysticks_REAL() #10
  br label %35

35:                                               ; preds = %22, %SDL_GetRealGamepadTypeForID_REAL.exit
  %.0 = phi i32 [ %.0.i, %SDL_GetRealGamepadTypeForID_REAL.exit ], [ %23, %22 ]
  ret i32 %.0
}